target datalayout = "e-m:e-p270:32:32-p271:32:32-p272:64:64-i64:64-i128:128-f80:128-n8:16:32:64-S128"
target triple = "x86_64-pc-linux-gnu"

; Function Attrs: nounwind uwtable
define internal void @pred8x8l_horizontal_add_12_c(ptr noundef %0, ptr noundef %1, i64 noundef %2) #1 {
  %4 = alloca ptr, align 8
  %5 = alloca ptr, align 8
  %6 = alloca i64, align 8
  %7 = alloca i32, align 4
  %8 = alloca ptr, align 8
  %9 = alloca ptr, align 8
  %10 = alloca i16, align 2
  store ptr %0, ptr %4, align 8, !tbaa !12
  store ptr %1, ptr %5, align 8, !tbaa !16
  store i64 %2, ptr %6, align 8, !tbaa !14
  call void @llvm.lifetime.start.p0(i64 4, ptr %7) #9
  call void @llvm.lifetime.start.p0(i64 8, ptr %8) #9
  %11 = load ptr, ptr %4, align 8, !tbaa !12
  store ptr %11, ptr %8, align 8, !tbaa !16
  call void @llvm.lifetime.start.p0(i64 8, ptr %9) #9
  %12 = load ptr, ptr %5, align 8, !tbaa !16
  store ptr %12, ptr %9, align 8, !tbaa !63
  %13 = load i64, ptr %6, align 8, !tbaa !14
  %14 = ashr i64 %13, 1
  store i64 %14, ptr %6, align 8, !tbaa !14
  store i32 0, ptr %7, align 4, !tbaa !9
  br label %15

15:                                               ; preds = %99, %3
  %16 = load i32, ptr %7, align 4, !tbaa !9
  %17 = icmp slt i32 %16, 8
  br i1 %17, label %18, label %102

18:                                               ; preds = %15
  call void @llvm.lifetime.start.p0(i64 2, ptr %10) #9
  %19 = load ptr, ptr %8, align 8, !tbaa !16
  %20 = getelementptr inbounds i16, ptr %19, i64 -1
  %21 = load i16, ptr %20, align 2, !tbaa !19
  store i16 %21, ptr %10, align 2, !tbaa !19
  %22 = load ptr, ptr %9, align 8, !tbaa !63
  %23 = getelementptr inbounds i32, ptr %22, i64 0
  %24 = load i32, ptr %23, align 4, !tbaa !9
  %25 = load i16, ptr %10, align 2, !tbaa !19
  %26 = zext i16 %25 to i32
  %27 = add nsw i32 %26, %24
  %28 = trunc i32 %27 to i16
  store i16 %28, ptr %10, align 2, !tbaa !19
  %29 = load ptr, ptr %8, align 8, !tbaa !16
  %30 = getelementptr inbounds i16, ptr %29, i64 0
  store i16 %28, ptr %30, align 2, !tbaa !19
  %31 = load ptr, ptr %9, align 8, !tbaa !63
  %32 = getelementptr inbounds i32, ptr %31, i64 1
  %33 = load i32, ptr %32, align 4, !tbaa !9
  %34 = load i16, ptr %10, align 2, !tbaa !19
  %35 = zext i16 %34 to i32
  %36 = add nsw i32 %35, %33
  %37 = trunc i32 %36 to i16
  store i16 %37, ptr %10, align 2, !tbaa !19
  %38 = load ptr, ptr %8, align 8, !tbaa !16
  %39 = getelementptr inbounds i16, ptr %38, i64 1
  store i16 %37, ptr %39, align 2, !tbaa !19
  %40 = load ptr, ptr %9, align 8, !tbaa !63
  %41 = getelementptr inbounds i32, ptr %40, i64 2
  %42 = load i32, ptr %41, align 4, !tbaa !9
  %43 = load i16, ptr %10, align 2, !tbaa !19
  %44 = zext i16 %43 to i32
  %45 = add nsw i32 %44, %42
  %46 = trunc i32 %45 to i16
  store i16 %46, ptr %10, align 2, !tbaa !19
  %47 = load ptr, ptr %8, align 8, !tbaa !16
  %48 = getelementptr inbounds i16, ptr %47, i64 2
  store i16 %46, ptr %48, align 2, !tbaa !19
  %49 = load ptr, ptr %9, align 8, !tbaa !63
  %50 = getelementptr inbounds i32, ptr %49, i64 3
  %51 = load i32, ptr %50, align 4, !tbaa !9
  %52 = load i16, ptr %10, align 2, !tbaa !19
  %53 = zext i16 %52 to i32
  %54 = add nsw i32 %53, %51
  %55 = trunc i32 %54 to i16
  store i16 %55, ptr %10, align 2, !tbaa !19
  %56 = load ptr, ptr %8, align 8, !tbaa !16
  %57 = getelementptr inbounds i16, ptr %56, i64 3
  store i16 %55, ptr %57, align 2, !tbaa !19
  %58 = load ptr, ptr %9, align 8, !tbaa !63
  %59 = getelementptr inbounds i32, ptr %58, i64 4
  %60 = load i32, ptr %59, align 4, !tbaa !9
  %61 = load i16, ptr %10, align 2, !tbaa !19
  %62 = zext i16 %61 to i32
  %63 = add nsw i32 %62, %60
  %64 = trunc i32 %63 to i16
  store i16 %64, ptr %10, align 2, !tbaa !19
  %65 = load ptr, ptr %8, align 8, !tbaa !16
  %66 = getelementptr inbounds i16, ptr %65, i64 4
  store i16 %64, ptr %66, align 2, !tbaa !19
  %67 = load ptr, ptr %9, align 8, !tbaa !63
  %68 = getelementptr inbounds i32, ptr %67, i64 5
  %69 = load i32, ptr %68, align 4, !tbaa !9
  %70 = load i16, ptr %10, align 2, !tbaa !19
  %71 = zext i16 %70 to i32
  %72 = add nsw i32 %71, %69
  %73 = trunc i32 %72 to i16
  store i16 %73, ptr %10, align 2, !tbaa !19
  %74 = load ptr, ptr %8, align 8, !tbaa !16
  %75 = getelementptr inbounds i16, ptr %74, i64 5
  store i16 %73, ptr %75, align 2, !tbaa !19
  %76 = load ptr, ptr %9, align 8, !tbaa !63
  %77 = getelementptr inbounds i32, ptr %76, i64 6
  %78 = load i32, ptr %77, align 4, !tbaa !9
  %79 = load i16, ptr %10, align 2, !tbaa !19
  %80 = zext i16 %79 to i32
  %81 = add nsw i32 %80, %78
  %82 = trunc i32 %81 to i16
  store i16 %82, ptr %10, align 2, !tbaa !19
  %83 = load ptr, ptr %8, align 8, !tbaa !16
  %84 = getelementptr inbounds i16, ptr %83, i64 6
  store i16 %82, ptr %84, align 2, !tbaa !19
  %85 = load i16, ptr %10, align 2, !tbaa !19
  %86 = zext i16 %85 to i32
  %87 = load ptr, ptr %9, align 8, !tbaa !63
  %88 = getelementptr inbounds i32, ptr %87, i64 7
  %89 = load i32, ptr %88, align 4, !tbaa !9
  %90 = add nsw i32 %86, %89
  %91 = trunc i32 %90 to i16
  %92 = load ptr, ptr %8, align 8, !tbaa !16
  %93 = getelementptr inbounds i16, ptr %92, i64 7
  store i16 %91, ptr %93, align 2, !tbaa !19
  %94 = load i64, ptr %6, align 8, !tbaa !14
  %95 = load ptr, ptr %8, align 8, !tbaa !16
  %96 = getelementptr inbounds i16, ptr %95, i64 %94
  store ptr %96, ptr %8, align 8, !tbaa !16
  %97 = load ptr, ptr %9, align 8, !tbaa !63
  %98 = getelementptr inbounds i32, ptr %97, i64 8
  store ptr %98, ptr %9, align 8, !tbaa !63
  call void @llvm.lifetime.end.p0(i64 2, ptr %10) #9
  br label %99

99:                                               ; preds = %18
  %100 = load i32, ptr %7, align 4, !tbaa !9
  %101 = add nsw i32 %100, 1
  store i32 %101, ptr %7, align 4, !tbaa !9
  br label %15, !llvm.loop !178

102:                                              ; preds = %15
  %103 = load ptr, ptr %5, align 8, !tbaa !16
  call void @llvm.memset.p0.i64(ptr align 2 %103, i8 0, i64 256, i1 false)
  call void @llvm.lifetime.end.p0(i64 8, ptr %9) #9
  call void @llvm.lifetime.end.p0(i64 8, ptr %8) #9
  call void @llvm.lifetime.end.p0(i64 4, ptr %7) #9
  ret void
}